; Function Attrs: mustprogress uwtable
define dso_local noundef ptr @_ZN7V3Width18widthSelNoIterEditEP7AstNode(ptr noundef %0) #3 align 2 personality ptr @__gxx_personality_v0 {
  %2 = alloca %"class.std::__cxx11::basic_string", align 8
  %3 = alloca %class.WidthSelVisitor, align 8
  %4 = tail call noundef i32 @_ZL5debugv()
  %5 = icmp sgt i32 %4, 3
  br i1 %5, label %6, label %24

6:                                                ; preds = %1
  %7 = tail call noundef nonnull align 8 dereferenceable(8) ptr @_ZStlsISt11char_traitsIcEERSt13basic_ostreamIcT_ES5_PKc(ptr noundef nonnull align 8 dereferenceable(8) @_ZSt4cout, ptr noundef nonnull @.str)
  call void @_ZN7V3Error7lineStrB5cxx11EPKci(ptr dead_on_unwind nonnull writable sret(%"class.std::__cxx11::basic_string") align 8 %2, ptr noundef nonnull @.str.1, i32 noundef 631)
  %8 = invoke noundef nonnull align 8 dereferenceable(8) ptr @_ZStlsIcSt11char_traitsIcESaIcEERSt13basic_ostreamIT_T0_ES7_RKNSt7__cxx1112basic_stringIS4_S5_T1_EE(ptr noundef nonnull align 8 dereferenceable(8) %7, ptr noundef nonnull align 8 dereferenceable(32) %2)
          to label %9 unwind label %22

9:                                                ; preds = %6
  %10 = invoke noundef nonnull align 8 dereferenceable(8) ptr @_ZStlsISt11char_traitsIcEERSt13basic_ostreamIcT_ES5_PKc(ptr noundef nonnull align 8 dereferenceable(8) %8, ptr noundef nonnull @__FUNCTION__._ZN7V3Width18widthSelNoIterEditEP7AstNode)
          to label %11 unwind label %22

11:                                               ; preds = %9
  %12 = invoke noundef nonnull align 8 dereferenceable(8) ptr @_ZStlsISt11char_traitsIcEERSt13basic_ostreamIcT_ES5_PKc(ptr noundef nonnull align 8 dereferenceable(8) %10, ptr noundef nonnull @.str.2)
          to label %13 unwind label %22

13:                                               ; preds = %11
  %.not.i = icmp eq ptr %0, null
  br i1 %.not.i, label %14, label %16

14:                                               ; preds = %13
  %15 = invoke noundef nonnull align 8 dereferenceable(8) ptr @_ZStlsISt11char_traitsIcEERSt13basic_ostreamIcT_ES5_PKc(ptr noundef nonnull align 8 dereferenceable(8) %12, ptr noundef nonnull @.str.5)
          to label %_ZlsRSoPK7AstNode.exit unwind label %22

16:                                               ; preds = %13
  %17 = load ptr, ptr %0, align 8
  %18 = getelementptr inbounds i8, ptr %17, i64 112
  %19 = load ptr, ptr %18, align 8
  invoke void %19(ptr noundef nonnull align 8 dereferenceable(152) %0, ptr noundef nonnull align 8 dereferenceable(8) %12)
          to label %_ZlsRSoPK7AstNode.exit unwind label %22

_ZlsRSoPK7AstNode.exit:                           ; preds = %14, %16
  %20 = invoke noundef nonnull align 8 dereferenceable(8) ptr @_ZNSolsEPFRSoS_E(ptr noundef nonnull align 8 dereferenceable(8) %12, ptr noundef nonnull @_ZSt4endlIcSt11char_traitsIcEERSt13basic_ostreamIT_T0_ES6_)
          to label %21 unwind label %22

21:                                               ; preds = %_ZlsRSoPK7AstNode.exit
  call void @_ZNSt7__cxx1112basic_stringIcSt11char_traitsIcESaIcEED1Ev(ptr noundef nonnull align 8 dereferenceable(32) %2) #18
  br label %24

22:                                               ; preds = %16, %14, %_ZlsRSoPK7AstNode.exit, %11, %9, %6
  %23 = landingpad { ptr, i32 }
          cleanup
  call void @_ZNSt7__cxx1112basic_stringIcSt11char_traitsIcESaIcEED1Ev(ptr noundef nonnull align 8 dereferenceable(32) %2) #18
  br label %35

24:                                               ; preds = %1, %21
  %25 = getelementptr inbounds i8, ptr %3, i64 8
  call void @llvm.memset.p0.i64(ptr noundef nonnull align 8 dereferenceable(24) %25, i8 0, i64 24, i1 false)
  store ptr getelementptr inbounds inrange(-16, 3696) ({ [464 x ptr] }, ptr @_ZTV15WidthSelVisitor, i64 0, i32 0, i64 2), ptr %3, align 8
  %26 = invoke noundef ptr @_ZN7AstNode25iterateSubtreeReturnEditsER9VNVisitor(ptr noundef nonnull align 8 dereferenceable(152) %0, ptr noundef nonnull align 8 dereferenceable(32) %3)
          to label %_ZN15WidthSelVisitor14mainAcceptEditEP7AstNode.exit unwind label %33

_ZN15WidthSelVisitor14mainAcceptEditEP7AstNode.exit: ; preds = %24
  store ptr getelementptr inbounds inrange(-16, 3696) ({ [464 x ptr] }, ptr @_ZTV9VNVisitor, i64 0, i32 0, i64 2), ptr %3, align 8
  invoke void @_ZN9VNDeleter9doDeletesEv(ptr noundef nonnull align 8 dereferenceable(24) %25)
          to label %27 unwind label %30

27:                                               ; preds = %_ZN15WidthSelVisitor14mainAcceptEditEP7AstNode.exit
  %28 = load ptr, ptr %25, align 8
  %.not.i.i.i.i.i.i = icmp eq ptr %28, null
  br i1 %.not.i.i.i.i.i.i, label %_ZN15WidthSelVisitorD2Ev.exit, label %29

29:                                               ; preds = %27
  call void @_ZdlPv(ptr noundef nonnull %28) #19
  br label %_ZN15WidthSelVisitorD2Ev.exit

30:                                               ; preds = %_ZN15WidthSelVisitor14mainAcceptEditEP7AstNode.exit
  %31 = landingpad { ptr, i32 }
          catch ptr null
  %32 = extractvalue { ptr, i32 } %31, 0
  call void @__clang_call_terminate(ptr %32) #20
  unreachable

_ZN15WidthSelVisitorD2Ev.exit:                    ; preds = %27, %29
  ret ptr %26

33:                                               ; preds = %24
  %34 = landingpad { ptr, i32 }
          cleanup
  call void @_ZN15WidthSelVisitorD2Ev(ptr noundef nonnull align 8 dereferenceable(32) %3) #18
  br label %35

35:                                               ; preds = %33, %22
  %.pn = phi { ptr, i32 } [ %34, %33 ], [ %23, %22 ]
  resume { ptr, i32 } %.pn
}